; Function Attrs: mustprogress nounwind uwtable
define noundef i64 @_ZN6google8protobuf8internal10WireFormat33ComputeUnknownMessageSetItemsSizeERKNS0_15UnknownFieldSetE(ptr noundef nonnull readonly align 8 captures(none) dereferenceable(24) %unknown_fields) local_unnamed_addr #4 align 2 personality ptr @__gxx_personality_v0 {
entry:
  %_M_finish.i.i = getelementptr inbounds nuw i8, ptr %unknown_fields, i64 8
  %0 = load ptr, ptr %_M_finish.i.i, align 8
  %1 = load ptr, ptr %unknown_fields, align 8
  %sub.ptr.lhs.cast.i.i19 = ptrtoint ptr %0 to i64
  %sub.ptr.rhs.cast.i.i20 = ptrtoint ptr %1 to i64
  %sub.ptr.sub.i.i21 = sub i64 %sub.ptr.lhs.cast.i.i19, %sub.ptr.rhs.cast.i.i20
  %sub.ptr.div.i.i22 = lshr exact i64 %sub.ptr.sub.i.i21, 4
  %conv.i23 = trunc i64 %sub.ptr.div.i.i22 to i32
  %cmp24 = icmp sgt i32 %conv.i23, 0
  br i1 %cmp24, label %for.body.lr.ph, label %for.end

for.body.lr.ph:                                   ; preds = %entry
  %2 = load i64, ptr @_ZN6google8protobuf8internal14WireFormatLite23kMessageSetItemTagsSizeE, align 8
  br label %for.body

for.body:                                         ; preds = %for.body.lr.ph, %for.inc
  %3 = phi ptr [ %1, %for.body.lr.ph ], [ %10, %for.inc ]
  %4 = phi ptr [ %0, %for.body.lr.ph ], [ %11, %for.inc ]
  %indvars.iv = phi i64 [ 0, %for.body.lr.ph ], [ %indvars.iv.next, %for.inc ]
  %size.026 = phi i64 [ 0, %for.body.lr.ph ], [ %size.1, %for.inc ]
  %add.ptr.i.i = getelementptr inbounds nuw %"class.google::protobuf::UnknownField", ptr %3, i64 %indvars.iv
  %type_.i = getelementptr inbounds nuw i8, ptr %add.ptr.i.i, i64 4
  %5 = load i32, ptr %type_.i, align 4
  %cmp3 = icmp eq i32 %5, 3
  br i1 %cmp3, label %if.then, label %for.inc

if.then:                                          ; preds = %for.body
  %add = add i64 %2, %size.026
  %6 = load i32, ptr %add.ptr.i.i, align 8
  %or.i = or i32 %6, 1
  %7 = tail call noundef range(i32 0, 33) i32 @llvm.ctlz.i32(i32 %or.i, i1 true)
  %sub.i = xor i32 %7, 31
  %mul.i = mul nuw nsw i32 %sub.i, 9
  %add.i = add nuw nsw i32 %mul.i, 73
  %div1.i = lshr i32 %add.i, 6
  %conv.i12 = zext nneg i32 %div1.i to i64
  %data_.i = getelementptr inbounds nuw i8, ptr %add.ptr.i.i, i64 8
  %8 = load ptr, ptr %data_.i, align 8
  %call2.i = tail call noundef i64 @_ZNKSt7__cxx1112basic_stringIcSt11char_traitsIcESaIcEE4sizeEv(ptr noundef nonnull align 8 dereferenceable(32) %8) #23
  %conv = trunc i64 %call2.i to i32
  %or.i13 = or i32 %conv, 1
  %9 = tail call noundef range(i32 0, 33) i32 @llvm.ctlz.i32(i32 %or.i13, i1 true)
  %sub.i14 = xor i32 %9, 31
  %mul.i15 = mul nuw nsw i32 %sub.i14, 9
  %add.i16 = add nuw nsw i32 %mul.i15, 73
  %div1.i17 = lshr i32 %add.i16, 6
  %conv.i18 = zext nneg i32 %div1.i17 to i64
  %sext = shl i64 %call2.i, 32
  %conv10 = ashr exact i64 %sext, 32
  %add6 = add i64 %add, %conv10
  %add9 = add i64 %add6, %conv.i12
  %add11 = add i64 %add9, %conv.i18
  %.pre = load ptr, ptr %_M_finish.i.i, align 8
  %.pre28 = load ptr, ptr %unknown_fields, align 8
  br label %for.inc

for.inc:                                          ; preds = %for.body, %if.then
  %10 = phi ptr [ %.pre28, %if.then ], [ %3, %for.body ]
  %11 = phi ptr [ %.pre, %if.then ], [ %4, %for.body ]
  %size.1 = phi i64 [ %add11, %if.then ], [ %size.026, %for.body ]
  %indvars.iv.next = add nuw nsw i64 %indvars.iv, 1
  %sub.ptr.lhs.cast.i.i = ptrtoint ptr %11 to i64
  %sub.ptr.rhs.cast.i.i = ptrtoint ptr %10 to i64
  %sub.ptr.sub.i.i = sub i64 %sub.ptr.lhs.cast.i.i, %sub.ptr.rhs.cast.i.i
  %sext29 = shl i64 %sub.ptr.sub.i.i, 28
  %12 = ashr i64 %sext29, 32
  %cmp = icmp slt i64 %indvars.iv.next, %12
  br i1 %cmp, label %for.body, label %for.end, !llvm.loop !12

for.end:                                          ; preds = %for.inc, %entry
  %size.0.lcssa = phi i64 [ 0, %entry ], [ %size.1, %for.inc ]
  ret i64 %size.0.lcssa
}